target datalayout = "e-m:e-p270:32:32-p271:32:32-p272:64:64-i64:64-i128:128-f80:128-n8:16:32:64-S128"
target triple = "x86_64-pc-linux-gnu"

%struct.H5O_storage_chunk_t = type { i32, i64, ptr, %union.anon.4 }
%union.anon.4 = type { %struct.H5O_storage_chunk_btree_t }
%struct.H5O_storage_chunk_btree_t = type { i64, ptr }
%struct.H5O_storage_chunk_farray_t = type { i64, ptr }

; Function Attrs: nounwind uwtable
define internal i32 @H5D__farray_idx_reset(ptr noundef %0, i1 noundef zeroext %1) #0 {
  %3 = alloca ptr, align 8
  %4 = alloca i8, align 1
  store ptr %0, ptr %3, align 8
  %5 = zext i1 %1 to i8
  store i8 %5, ptr %4, align 1
  %6 = load i8, ptr %4, align 1
  %7 = trunc i8 %6 to i1
  br i1 %7, label %8, label %11

8:                                                ; preds = %2
  %9 = load ptr, ptr %3, align 8
  %10 = getelementptr inbounds %struct.H5O_storage_chunk_t, ptr %9, i32 0, i32 1
  store i64 -1, ptr %10, align 8
  br label %11

11:                                               ; preds = %8, %2
  %12 = load ptr, ptr %3, align 8
  %13 = getelementptr inbounds %struct.H5O_storage_chunk_t, ptr %12, i32 0, i32 3
  %14 = getelementptr inbounds %struct.H5O_storage_chunk_farray_t, ptr %13, i32 0, i32 1
  store ptr null, ptr %14, align 8
  ret i32 0
}